(dp1
S'OriginalConfig'
p2
ccopy_reg
_reconstructor
p3
(cWMCore.Configuration
Configuration
p4
c__builtin__
object
p5
NtRp6
(dp7
S'Site'
p8
g3
(cWMCore.Configuration
ConfigSection
p9
g5
NtRp10
(dp11
S'_internal_skipChecks'
p12
I00
sS'_internal_documentation'
p13
S''
sS'_internal_settings'
p14
c__builtin__
set
p15
((lp16
S'storageSite'
p17
atRp18
sS'_internal_name'
p19
g8
sS'_internal_docstrings'
p20
(dp21
sS'_internal_children'
p22
g15
((ltRp23
sg17
S'T3_US_FNALLPC'
p24
sS'_internal_parent_ref'
p25
NsbsS'_internal_sections'
p26
(lp27
S'General'
p28
aS'JobType'
p29
aS'Data'
p30
ag8
asg28
g3
(g9
g5
NtRp31
(dp32
S'transferLogs'
p33
I00
sg12
I00
sg13
S''
sg14
g15
((lp34
g33
aS'transferOutputs'
p35
aS'workArea'
p36
aS'requestName'
p37
atRp38
sg19
g28
sg20
(dp39
sg35
I01
sg22
g15
((ltRp40
sg37
S'NLO_step1_VLQ_SIM'
p41
sg25
Nsg36
S'crab_projects'
p42
sbsS'_internal_webapps'
p43
(lp44
sS'_internal_components'
p45
(lp46
sg30
g3
(g9
g5
NtRp47
(dp48
S'outputDatasetTag'
p49
g41
sg12
I00
sS'unitsPerJob'
p50
I10
sg13
S''
sg14
g15
((lp51
g49
aS'publication'
p52
ag50
aS'splitting'
p53
aS'outLFNDirBase'
p54
aS'outputPrimaryDataset'
p55
aS'totalUnits'
p56
atRp57
sg54
S'/store/user/bregnery/'
p58
sg19
g30
sg53
S'EventBased'
p59
sg20
(dp60
sg22
g15
((ltRp61
sg52
I01
sg55
S'MinBias'
p62
sg25
Nsg56
I1000
sbsg29
g3
(g9
g5
NtRp63
(dp64
g12
I00
sg13
S''
sg14
g15
((lp65
S'psetName'
p66
aS'pluginName'
p67
aS'allowUndistributedCMSSW'
p68
atRp69
sg19
g29
sg20
(dp70
sg67
S'PrivateMC'
p71
sg22
g15
((ltRp72
sg68
I01
sg66
S'NNLO_VLQ_custom_python_cfg.py'
p73
sg25
NsbsbsS'voGroup'
p74
S''
sS'Server'
p75
S'cmsweb.cern.ch'
p76
sS'instance'
p77
S'prod'
p78
sS'RequestName'
p79
V210917_154700:bregnery_crab_NLO_step1_VLQ_SIM
p80
sS'voRole'
p81
S'NULL'
p82
sS'Port'
p83
S''
s.